; Function Attrs: nounwind uwtable
define void @If_ManSatTest2() local_unnamed_addr #0 {
  %1 = alloca i64, align 8
  %2 = alloca i64, align 8
  %3 = tail call ptr @If_ManSatBuildXY(i32 noundef 4)
  %4 = tail call ptr @Dau_DsdToTruth(ptr noundef nonnull @.str.1, i32 noundef 6) #10
  call void @llvm.lifetime.start.p0(i64 8, ptr nonnull %1) #10
  call void @llvm.lifetime.start.p0(i64 8, ptr nonnull %2) #10
  %5 = tail call noalias dereferenceable_or_null(16) ptr @malloc(i64 noundef 16) #12
  %6 = getelementptr inbounds nuw i8, ptr %5, i64 4
  store i32 0, ptr %6, align 4, !tbaa !23
  store i32 100, ptr %5, align 8, !tbaa !18
  %7 = tail call noalias dereferenceable_or_null(400) ptr @malloc(i64 noundef 400) #12
  %8 = getelementptr inbounds nuw i8, ptr %5, i64 8
  store ptr %7, ptr %8, align 8, !tbaa !22
  %9 = call i32 @If_ManSatCheckXY(ptr noundef %3, i32 noundef 4, ptr noundef %4, i32 noundef 6, i32 noundef 93, ptr noundef nonnull %1, ptr noundef nonnull %2, ptr noundef nonnull %5)
  call void @Dau_DsdPrintFromTruth(ptr noundef %4, i32 noundef 6) #10
  call void @Dau_DsdPrintFromTruth(ptr noundef nonnull %1, i32 noundef 4) #10
  call void @Dau_DsdPrintFromTruth(ptr noundef nonnull %2, i32 noundef 4) #10
  call void @sat_solver_delete(ptr noundef %3) #10
  %10 = load ptr, ptr %8, align 8, !tbaa !22
  %.not.i = icmp eq ptr %10, null
  br i1 %.not.i, label %Vec_IntFree.exit, label %11

11:                                               ; preds = %0
  call void @free(ptr noundef nonnull %10) #10
  br label %Vec_IntFree.exit

Vec_IntFree.exit:                                 ; preds = %0, %11
  call void @free(ptr noundef nonnull %5) #10
  call void @llvm.lifetime.end.p0(i64 8, ptr nonnull %2) #10
  call void @llvm.lifetime.end.p0(i64 8, ptr nonnull %1) #10
  ret void
}